; Function Attrs: mustprogress nofree norecurse nosync nounwind willreturn memory(argmem: read) uwtable
define noundef zeroext i1 @_ZN4base11EqualsASCIIENS_16BasicStringPieceINSt7__cxx1112basic_stringItNS_20string16_char_traitsESaItEEEEENS0_INS2_IcSt11char_traitsIcESaIcEEEEE(ptr readonly captures(none) %0, i64 %1, ptr readonly captures(address) %2, i64 %3) local_unnamed_addr #5 {
  %.not = icmp eq i64 %1, %3
  br i1 %.not, label %5, label %_ZSt5equalIPKcPKtEbT_S4_T0_.exit

5:                                                ; preds = %4
  %6 = getelementptr inbounds nuw i8, ptr %2, i64 %1
  %.not9.i.i.i.i = icmp samesign eq i64 %1, 0
  br i1 %.not9.i.i.i.i, label %_ZSt5equalIPKcPKtEbT_S4_T0_.exit, label %.lr.ph.i.i.i.i

.lr.ph.i.i.i.i:                                   ; preds = %5, %.lr.ph.i.i.i.i
  %.011.i.i.i.i = phi ptr [ %13, %.lr.ph.i.i.i.i ], [ %0, %5 ]
  %.0810.i.i.i.i = phi ptr [ %12, %.lr.ph.i.i.i.i ], [ %2, %5 ]
  %7 = load i8, ptr %.0810.i.i.i.i, align 1, !tbaa !20
  %8 = sext i8 %7 to i32
  %9 = load i16, ptr %.011.i.i.i.i, align 2, !tbaa !31
  %10 = zext i16 %9 to i32
  %11 = icmp eq i32 %8, %10
  %12 = getelementptr inbounds nuw i8, ptr %.0810.i.i.i.i, i64 1
  %13 = getelementptr inbounds nuw i8, ptr %.011.i.i.i.i, i64 2
  %.not.i.i.i.i = icmp ne ptr %12, %6
  %or.cond.not = select i1 %11, i1 %.not.i.i.i.i, i1 false
  br i1 %or.cond.not, label %.lr.ph.i.i.i.i, label %_ZSt5equalIPKcPKtEbT_S4_T0_.exit, !llvm.loop !97

_ZSt5equalIPKcPKtEbT_S4_T0_.exit:                 ; preds = %.lr.ph.i.i.i.i, %5, %4
  %.0 = phi i1 [ false, %4 ], [ true, %5 ], [ %11, %.lr.ph.i.i.i.i ]
  ret i1 %.0
}